target datalayout = "e-m:e-p270:32:32-p271:32:32-p272:64:64-i64:64-i128:128-f80:128-n8:16:32:64-S128"
target triple = "x86_64-pc-linux-gnu"

; Function Attrs: nounwind uwtable
define internal void @scale_samples_dblp(ptr noundef %0, ptr noundef %1, i32 noundef %2, i32 noundef %3, double noundef %4) #1 {
  %6 = alloca ptr, align 8
  %7 = alloca ptr, align 8
  %8 = alloca i32, align 4
  %9 = alloca i32, align 4
  %10 = alloca double, align 8
  %11 = alloca i32, align 4
  %12 = alloca i32, align 4
  %13 = alloca ptr, align 8
  %14 = alloca ptr, align 8
  store ptr %0, ptr %6, align 8, !tbaa !77
  store ptr %1, ptr %7, align 8, !tbaa !77
  store i32 %2, ptr %8, align 4, !tbaa !30
  store i32 %3, ptr %9, align 4, !tbaa !30
  store double %4, ptr %10, align 8, !tbaa !78
  call void @llvm.lifetime.start.p0(i64 4, ptr %11) #10
  call void @llvm.lifetime.start.p0(i64 4, ptr %12) #10
  store i32 0, ptr %11, align 4, !tbaa !30
  br label %15

15:                                               ; preds = %50, %5
  %16 = load i32, ptr %11, align 4, !tbaa !30
  %17 = load i32, ptr %8, align 4, !tbaa !30
  %18 = icmp slt i32 %16, %17
  br i1 %18, label %19, label %53

19:                                               ; preds = %15
  store i32 0, ptr %12, align 4, !tbaa !30
  br label %20

20:                                               ; preds = %46, %19
  %21 = load i32, ptr %12, align 4, !tbaa !30
  %22 = load i32, ptr %9, align 4, !tbaa !30
  %23 = icmp slt i32 %21, %22
  br i1 %23, label %24, label %49

24:                                               ; preds = %20
  call void @llvm.lifetime.start.p0(i64 8, ptr %13) #10
  %25 = load ptr, ptr %6, align 8, !tbaa !77
  %26 = load i32, ptr %12, align 4, !tbaa !30
  %27 = sext i32 %26 to i64
  %28 = getelementptr inbounds ptr, ptr %25, i64 %27
  %29 = load ptr, ptr %28, align 8, !tbaa !29
  store ptr %29, ptr %13, align 8, !tbaa !79
  call void @llvm.lifetime.start.p0(i64 8, ptr %14) #10
  %30 = load ptr, ptr %7, align 8, !tbaa !77
  %31 = load i32, ptr %12, align 4, !tbaa !30
  %32 = sext i32 %31 to i64
  %33 = getelementptr inbounds ptr, ptr %30, i64 %32
  %34 = load ptr, ptr %33, align 8, !tbaa !29
  store ptr %34, ptr %14, align 8, !tbaa !79
  %35 = load ptr, ptr %14, align 8, !tbaa !79
  %36 = load i32, ptr %11, align 4, !tbaa !30
  %37 = sext i32 %36 to i64
  %38 = getelementptr inbounds double, ptr %35, i64 %37
  %39 = load double, ptr %38, align 8, !tbaa !78
  %40 = load double, ptr %10, align 8, !tbaa !78
  %41 = fmul nsz double %39, %40
  %42 = load ptr, ptr %13, align 8, !tbaa !79
  %43 = load i32, ptr %11, align 4, !tbaa !30
  %44 = sext i32 %43 to i64
  %45 = getelementptr inbounds double, ptr %42, i64 %44
  store double %41, ptr %45, align 8, !tbaa !78
  call void @llvm.lifetime.end.p0(i64 8, ptr %14) #10
  call void @llvm.lifetime.end.p0(i64 8, ptr %13) #10
  br label %46

46:                                               ; preds = %24
  %47 = load i32, ptr %12, align 4, !tbaa !30
  %48 = add nsw i32 %47, 1
  store i32 %48, ptr %12, align 4, !tbaa !30
  br label %20, !llvm.loop !86

49:                                               ; preds = %20
  br label %50

50:                                               ; preds = %49
  %51 = load i32, ptr %11, align 4, !tbaa !30
  %52 = add nsw i32 %51, 1
  store i32 %52, ptr %11, align 4, !tbaa !30
  br label %15, !llvm.loop !87

53:                                               ; preds = %15
  call void @llvm.lifetime.end.p0(i64 4, ptr %12) #10
  call void @llvm.lifetime.end.p0(i64 4, ptr %11) #10
  ret void
}